; Function Attrs: nounwind uwtable
define hidden zeroext i1 @OFFSCREEN_Vulkan_LoadLibrary(ptr noundef %0, ptr noundef %1) local_unnamed_addr #0 {
  %3 = alloca i32, align 4
  call void @llvm.lifetime.start.p0(i64 4, ptr nonnull %3) #4
  store i32 0, ptr %3, align 4
  %4 = getelementptr inbounds nuw i8, ptr %0, i64 1368
  %5 = getelementptr inbounds nuw i8, ptr %0, i64 1648
  %6 = load ptr, ptr %5, align 8
  %.not = icmp eq ptr %6, null
  br i1 %.not, label %9, label %7

7:                                                ; preds = %2
  %8 = tail call zeroext i1 (ptr, ...) @SDL_SetError_REAL(ptr noundef nonnull @.str) #4
  br label %45

9:                                                ; preds = %2
  %.not42 = icmp eq ptr %1, null
  br i1 %.not42, label %10, label %.critedge

10:                                               ; preds = %9
  %11 = tail call ptr @SDL_GetHint_REAL(ptr noundef nonnull @.str.1) #4
  %.pre = load ptr, ptr %5, align 8
  %12 = icmp eq ptr %.pre, null
  br i1 %12, label %.critedge, label %.critedge.thread

.critedge:                                        ; preds = %9, %10
  %.057 = phi ptr [ %11, %10 ], [ %1, %9 ]
  %.not43 = icmp eq ptr %.057, null
  %.sroa.speculated = select i1 %.not43, ptr @.str.14, ptr %.057
  %13 = tail call ptr @SDL_LoadObject_REAL(ptr noundef nonnull %.sroa.speculated) #4
  store ptr %13, ptr %5, align 8
  %14 = icmp eq ptr %13, null
  br i1 %14, label %15, label %.critedge.thread

15:                                               ; preds = %.critedge
  %16 = tail call zeroext i1 (ptr, ...) @SDL_SetError_REAL(ptr noundef nonnull @.str.2) #4
  br label %45

.critedge.thread:                                 ; preds = %10, %.critedge
  %.03249 = phi ptr [ %.sroa.speculated, %.critedge ], [ null, %10 ]
  %17 = getelementptr inbounds nuw i8, ptr %0, i64 1388
  %18 = tail call i64 @SDL_strlcpy_REAL(ptr noundef nonnull %17, ptr noundef %.03249, i64 noundef 256) #4
  %19 = load ptr, ptr %5, align 8
  %20 = tail call ptr @SDL_LoadFunction_REAL(ptr noundef %19, ptr noundef nonnull @.str.3) #4
  %.not44 = icmp eq ptr %20, null
  br i1 %.not44, label %21, label %23

21:                                               ; preds = %.critedge.thread
  %22 = tail call zeroext i1 (ptr, ...) @SDL_SetError_REAL(ptr noundef nonnull @.str.4) #4
  br label %43

23:                                               ; preds = %.critedge.thread
  store ptr %20, ptr %4, align 8
  %24 = tail call ptr %20(ptr noundef null, ptr noundef nonnull @.str.5) #4
  %25 = getelementptr inbounds nuw i8, ptr %0, i64 1376
  store ptr %24, ptr %25, align 8
  %.not45 = icmp eq ptr %24, null
  br i1 %.not45, label %43, label %26

26:                                               ; preds = %23
  %27 = call ptr @SDL_Vulkan_CreateInstanceExtensionsList(ptr noundef nonnull %24, ptr noundef nonnull %3) #4
  %.not46 = icmp eq ptr %27, null
  br i1 %.not46, label %43, label %.preheader

.preheader:                                       ; preds = %26
  %28 = load i32, ptr %3, align 4
  %.not55 = icmp eq i32 %28, 0
  br i1 %.not55, label %._crit_edge.thread, label %.lr.ph

._crit_edge.thread:                               ; preds = %.preheader
  call void @SDL_free_REAL(ptr noundef nonnull %27) #4
  br label %39

.lr.ph:                                           ; preds = %.preheader, %35
  %indvars.iv = phi i64 [ %indvars.iv.next, %35 ], [ 0, %.preheader ]
  %.03552 = phi i1 [ %.136, %35 ], [ false, %.preheader ]
  %.03751 = phi i1 [ %.138, %35 ], [ false, %.preheader ]
  %29 = getelementptr inbounds nuw %struct.VkExtensionProperties, ptr %27, i64 %indvars.iv
  %30 = call i32 @SDL_strcmp_REAL(ptr noundef nonnull @.str.6, ptr noundef nonnull %29) #4
  %31 = icmp eq i32 %30, 0
  br i1 %31, label %35, label %32

32:                                               ; preds = %.lr.ph
  %33 = call i32 @SDL_strcmp_REAL(ptr noundef nonnull @.str.7, ptr noundef nonnull %29) #4
  %34 = icmp eq i32 %33, 0
  %spec.select = select i1 %34, i1 true, i1 %.03552
  br label %35

35:                                               ; preds = %32, %.lr.ph
  %.138 = phi i1 [ true, %.lr.ph ], [ %.03751, %32 ]
  %.136 = phi i1 [ %.03552, %.lr.ph ], [ %spec.select, %32 ]
  %indvars.iv.next = add nuw nsw i64 %indvars.iv, 1
  %36 = load i32, ptr %3, align 4
  %37 = zext i32 %36 to i64
  %38 = icmp samesign ult i64 %indvars.iv.next, %37
  br i1 %38, label %.lr.ph, label %._crit_edge, !llvm.loop !3

._crit_edge:                                      ; preds = %35
  call void @SDL_free_REAL(ptr noundef nonnull %27) #4
  br i1 %.138, label %41, label %39

39:                                               ; preds = %._crit_edge.thread, %._crit_edge
  %40 = call zeroext i1 (ptr, ...) @SDL_SetError_REAL(ptr noundef nonnull @.str.8) #4
  br label %43

41:                                               ; preds = %._crit_edge
  br i1 %.136, label %45, label %42

42:                                               ; preds = %41
  call void (ptr, ...) @SDL_Log_REAL(ptr noundef nonnull @.str.9) #4
  br label %45

43:                                               ; preds = %26, %23, %39, %21
  %44 = load ptr, ptr %5, align 8
  call void @SDL_UnloadObject_REAL(ptr noundef %44) #4
  store ptr null, ptr %5, align 8
  br label %45

45:                                               ; preds = %41, %42, %43, %15, %7
  %.039 = phi i1 [ %8, %7 ], [ %16, %15 ], [ false, %43 ], [ true, %42 ], [ true, %41 ]
  call void @llvm.lifetime.end.p0(i64 4, ptr nonnull %3) #4
  ret i1 %.039
}